; Function Attrs: mustprogress uwtable
define void @_ZN10StringList10AddStringAEPKc(ptr nocapture noundef nonnull align 8 dereferenceable(184) %0, ptr noundef %1) local_unnamed_addr #2 align 2 personality ptr @__gxx_personality_v0 {
  %3 = tail call i64 @strlen(ptr noundef nonnull dereferenceable(1) %1) #15
  %.not.i = icmp eq i64 %3, 0
  br i1 %.not.i, label %_ZN5ArrayIwEC2Em.exit, label %4

4:                                                ; preds = %2
  %..i.i = tail call i64 @llvm.umax.i64(i64 %3, i64 32)
  %5 = shl i64 %..i.i, 2
  %malloc.i = tail call ptr @malloc(i64 %5)
  %6 = icmp eq ptr %malloc.i, null
  br i1 %6, label %7, label %_ZN5ArrayIwEC2Em.exit

7:                                                ; preds = %4
  tail call void @_ZN12ErrorHandler11MemoryErrorEv(ptr noundef nonnull align 4 dereferenceable(14) @ErrHandler)
  br label %_ZN5ArrayIwEC2Em.exit

_ZN5ArrayIwEC2Em.exit:                            ; preds = %4, %7, %2
  %.sroa.0.0 = phi ptr [ null, %2 ], [ null, %7 ], [ %malloc.i, %4 ]
  %8 = invoke noundef zeroext i1 @_Z10CharToWidePKcPwm(ptr noundef %1, ptr noundef nonnull %.sroa.0.0, i64 noundef %3)
          to label %9 unwind label %12

9:                                                ; preds = %_ZN5ArrayIwEC2Em.exit
  invoke void @_ZN10StringList9AddStringEPKw(ptr noundef nonnull align 8 dereferenceable(184) %0, ptr noundef nonnull %.sroa.0.0)
          to label %10 unwind label %12

10:                                               ; preds = %9
  %.not.i4 = icmp eq ptr %.sroa.0.0, null
  br i1 %.not.i4, label %_ZN5ArrayIwED2Ev.exit, label %11

11:                                               ; preds = %10
  tail call void @free(ptr noundef nonnull %.sroa.0.0) #14
  br label %_ZN5ArrayIwED2Ev.exit

_ZN5ArrayIwED2Ev.exit:                            ; preds = %10, %11
  ret void

12:                                               ; preds = %9, %_ZN5ArrayIwEC2Em.exit
  %13 = landingpad { ptr, i32 }
          cleanup
  %.not.i5 = icmp eq ptr %.sroa.0.0, null
  br i1 %.not.i5, label %_ZN5ArrayIwED2Ev.exit6, label %14

14:                                               ; preds = %12
  tail call void @free(ptr noundef nonnull %.sroa.0.0) #14
  br label %_ZN5ArrayIwED2Ev.exit6

_ZN5ArrayIwED2Ev.exit6:                           ; preds = %12, %14
  resume { ptr, i32 } %13
}